target datalayout = "e-m:e-p270:32:32-p271:32:32-p272:64:64-i64:64-i128:128-f80:128-n8:16:32:64-S128"
target triple = "x86_64-pc-linux-gnu"

%struct.WOLFSSL = type <{ ptr, ptr, ptr, ptr, [48 x i8], [48 x i8], ptr, ptr, ptr, ptr, ptr, ptr, ptr, ptr, ptr, ptr, ptr, ptr, ptr, i32, [4 x i8], %struct.WOLFSSL_CIPHER, ptr, %struct.Ciphers, %struct.Ciphers, [8 x i8], %struct.Buffers, ptr, ptr, %struct.WOLFSSL_ALERT_HISTORY, %struct.WOLFSSL_ALERT, i32, i32, i32, i32, i32, i32, i32, i16, [2 x i8], i32, i8, %struct.RecordLayerHeader, %struct.MsgsReceived, %struct.ProtocolVersion, %struct.ProtocolVersion, %struct.CipherSpecs, [2 x i8], %struct.Keys, %struct.Options, ptr, i8, i8, i16, [10 x i16], i8, i8, i16, i16, [38 x i8], i32, i32, [4 x i8], ptr, i8, i8, [6 x i8], ptr, ptr, i16, i8, i8, i32, i8, [3 x i8], i32, %struct.OneTimeAuth, ptr }>
%struct.WOLFSSL_CIPHER = type { i8, i8, ptr }
%struct.Ciphers = type { ptr, ptr, ptr, ptr, i8, i8 }
%struct.Buffers = type { %struct.bufferStatic, %struct.bufferStatic, %struct.WOLFSSL_BUFFER_INFO, %struct.WOLFSSL_BUFFER_INFO, %struct.WOLFSSL_BUFFER_INFO, %struct.WOLFSSL_BUFFER_INFO, i32, i32, i8, i8, i8, i8, %struct.WOLFSSL_BUFFER_INFO, %struct.WOLFSSL_BUFFER_INFO, %struct.WOLFSSL_BUFFER_INFO, %struct.WOLFSSL_BUFFER_INFO, ptr, ptr, ptr, i8, i8, i32, i32, ptr, i32, [1 x ptr] }
%struct.bufferStatic = type { [5 x i8], ptr, i32, i32, i32, i8, i8 }
%struct.WOLFSSL_BUFFER_INFO = type { ptr, i32 }
%struct.WOLFSSL_ALERT_HISTORY = type { %struct.WOLFSSL_ALERT, %struct.WOLFSSL_ALERT }
%struct.WOLFSSL_ALERT = type { i32, i32 }
%struct.RecordLayerHeader = type { i8, i8, i8, [2 x i8] }
%struct.MsgsReceived = type { i32 }
%struct.ProtocolVersion = type { i8, i8 }
%struct.CipherSpecs = type { i16, i16, i16, i16, i8, i8, i8, i8, i8, i8, i8, i8 }
%struct.Keys = type { [64 x i8], [64 x i8], [32 x i8], [32 x i8], [16 x i8], [16 x i8], [8 x i8], [12 x i8], [12 x i8], i32, i32, i32, i32, i32, i32, i8, i8, i8, i8 }
%struct.Options = type { i64, i64, i8, i8, i8, i8, i8, i8, i8, i8, i8, i8, i8, i8, i8, i8, i8, i8, i8, i8, i8, i8, i8, i16, i16, i16, i16, i16, i8 }
%struct.OneTimeAuth = type { ptr, i8 }

; Function Attrs: nounwind uwtable
define i32 @RetrySendAlert(ptr noundef %0) #0 {
  %2 = alloca i32, align 4
  %3 = alloca ptr, align 8
  %4 = alloca i32, align 4
  %5 = alloca i32, align 4
  %6 = alloca i32, align 4
  %7 = alloca i32, align 4
  store ptr %0, ptr %3, align 8, !tbaa !3
  call void @llvm.lifetime.start.p0(i64 4, ptr %4) #9
  store i32 0, ptr %4, align 4, !tbaa !47
  call void @llvm.lifetime.start.p0(i64 4, ptr %5) #9
  call void @llvm.lifetime.start.p0(i64 4, ptr %6) #9
  br label %8

8:                                                ; preds = %1
  br label %9

9:                                                ; preds = %8
  br label %10

10:                                               ; preds = %9
  %11 = load ptr, ptr %3, align 8, !tbaa !3
  %12 = icmp eq ptr %11, null
  br i1 %12, label %13, label %14

13:                                               ; preds = %10
  store i32 -173, ptr %2, align 4
  store i32 1, ptr %7, align 4
  br label %38

14:                                               ; preds = %10
  %15 = load ptr, ptr %3, align 8, !tbaa !3
  %16 = getelementptr inbounds nuw %struct.WOLFSSL, ptr %15, i32 0, i32 30
  %17 = getelementptr inbounds nuw %struct.WOLFSSL_ALERT, ptr %16, i32 0, i32 0
  %18 = load i32, ptr %17, align 16, !tbaa !279
  store i32 %18, ptr %5, align 4, !tbaa !47
  %19 = load ptr, ptr %3, align 8, !tbaa !3
  %20 = getelementptr inbounds nuw %struct.WOLFSSL, ptr %19, i32 0, i32 30
  %21 = getelementptr inbounds nuw %struct.WOLFSSL_ALERT, ptr %20, i32 0, i32 1
  %22 = load i32, ptr %21, align 4, !tbaa !278
  store i32 %22, ptr %6, align 4, !tbaa !47
  %23 = load i32, ptr %6, align 4, !tbaa !47
  %24 = icmp eq i32 %23, 0
  br i1 %24, label %25, label %26

25:                                               ; preds = %14
  store i32 0, ptr %2, align 4
  store i32 1, ptr %7, align 4
  br label %38

26:                                               ; preds = %14
  %27 = load ptr, ptr %3, align 8, !tbaa !3
  %28 = getelementptr inbounds nuw %struct.WOLFSSL, ptr %27, i32 0, i32 30
  %29 = getelementptr inbounds nuw %struct.WOLFSSL_ALERT, ptr %28, i32 0, i32 0
  store i32 0, ptr %29, align 16, !tbaa !279
  %30 = load ptr, ptr %3, align 8, !tbaa !3
  %31 = getelementptr inbounds nuw %struct.WOLFSSL, ptr %30, i32 0, i32 30
  %32 = getelementptr inbounds nuw %struct.WOLFSSL_ALERT, ptr %31, i32 0, i32 1
  store i32 0, ptr %32, align 4, !tbaa !278
  %33 = load ptr, ptr %3, align 8, !tbaa !3
  %34 = load i32, ptr %6, align 4, !tbaa !47
  %35 = load i32, ptr %5, align 4, !tbaa !47
  %36 = call i32 @SendAlert_ex(ptr noundef %33, i32 noundef %34, i32 noundef %35)
  store i32 %36, ptr %4, align 4, !tbaa !47
  %37 = load i32, ptr %4, align 4, !tbaa !47
  store i32 %37, ptr %2, align 4
  store i32 1, ptr %7, align 4
  br label %38

38:                                               ; preds = %26, %25, %13
  call void @llvm.lifetime.end.p0(i64 4, ptr %6) #9
  call void @llvm.lifetime.end.p0(i64 4, ptr %5) #9
  call void @llvm.lifetime.end.p0(i64 4, ptr %4) #9
  %39 = load i32, ptr %2, align 4
  ret i32 %39
}

; Function Attrs: nounwind uwtable
define i32 @SendAlert(ptr noundef %0, i32 noundef %1, i32 noundef %2) #0 {
  %4 = alloca i32, align 4
  %5 = alloca ptr, align 8
  %6 = alloca i32, align 4
  %7 = alloca i32, align 4
  %8 = alloca i32, align 4
  %9 = alloca i32, align 4
  store ptr %0, ptr %5, align 8, !tbaa !3
  store i32 %1, ptr %6, align 4, !tbaa !47
  store i32 %2, ptr %7, align 4, !tbaa !47
  call void @llvm.lifetime.start.p0(i64 4, ptr %8) #9
  store i32 0, ptr %8, align 4, !tbaa !47
  br label %10

10:                                               ; preds = %3
  br label %11

11:                                               ; preds = %10
  br label %12

12:                                               ; preds = %11
  %13 = load ptr, ptr %5, align 8, !tbaa !3
  %14 = icmp eq ptr %13, null
  br i1 %14, label %15, label %16

15:                                               ; preds = %12
  store i32 -173, ptr %4, align 4
  store i32 1, ptr %9, align 4
  br label %60

16:                                               ; preds = %12
  %17 = load ptr, ptr %5, align 8, !tbaa !3
  %18 = getelementptr inbounds nuw %struct.WOLFSSL, ptr %17, i32 0, i32 30
  %19 = getelementptr inbounds nuw %struct.WOLFSSL_ALERT, ptr %18, i32 0, i32 1
  %20 = load i32, ptr %19, align 4, !tbaa !278
  %21 = icmp ne i32 %20, 0
  br i1 %21, label %22, label %54

22:                                               ; preds = %16
  %23 = load ptr, ptr %5, align 8, !tbaa !3
  %24 = call i32 @RetrySendAlert(ptr noundef %23)
  store i32 %24, ptr %8, align 4, !tbaa !47
  %25 = load i32, ptr %8, align 4, !tbaa !47
  %26 = icmp ne i32 %25, 0
  br i1 %26, label %27, label %53

27:                                               ; preds = %22
  %28 = load ptr, ptr %5, align 8, !tbaa !3
  %29 = getelementptr inbounds nuw %struct.WOLFSSL, ptr %28, i32 0, i32 30
  %30 = getelementptr inbounds nuw %struct.WOLFSSL_ALERT, ptr %29, i32 0, i32 1
  %31 = load i32, ptr %30, align 4, !tbaa !278
  %32 = icmp eq i32 %31, 0
  br i1 %32, label %42, label %33

33:                                               ; preds = %27
  %34 = load ptr, ptr %5, align 8, !tbaa !3
  %35 = getelementptr inbounds nuw %struct.WOLFSSL, ptr %34, i32 0, i32 30
  %36 = getelementptr inbounds nuw %struct.WOLFSSL_ALERT, ptr %35, i32 0, i32 1
  %37 = load i32, ptr %36, align 4, !tbaa !278
  %38 = icmp ne i32 %37, 2
  br i1 %38, label %39, label %51

39:                                               ; preds = %33
  %40 = load i32, ptr %6, align 4, !tbaa !47
  %41 = icmp eq i32 %40, 2
  br i1 %41, label %42, label %51

42:                                               ; preds = %39, %27
  %43 = load i32, ptr %7, align 4, !tbaa !47
  %44 = load ptr, ptr %5, align 8, !tbaa !3
  %45 = getelementptr inbounds nuw %struct.WOLFSSL, ptr %44, i32 0, i32 30
  %46 = getelementptr inbounds nuw %struct.WOLFSSL_ALERT, ptr %45, i32 0, i32 0
  store i32 %43, ptr %46, align 16, !tbaa !279
  %47 = load i32, ptr %6, align 4, !tbaa !47
  %48 = load ptr, ptr %5, align 8, !tbaa !3
  %49 = getelementptr inbounds nuw %struct.WOLFSSL, ptr %48, i32 0, i32 30
  %50 = getelementptr inbounds nuw %struct.WOLFSSL_ALERT, ptr %49, i32 0, i32 1
  store i32 %47, ptr %50, align 4, !tbaa !278
  br label %51

51:                                               ; preds = %42, %39, %33
  %52 = load i32, ptr %8, align 4, !tbaa !47
  store i32 %52, ptr %4, align 4
  store i32 1, ptr %9, align 4
  br label %60

53:                                               ; preds = %22
  br label %54

54:                                               ; preds = %53, %16
  %55 = load ptr, ptr %5, align 8, !tbaa !3
  %56 = load i32, ptr %6, align 4, !tbaa !47
  %57 = load i32, ptr %7, align 4, !tbaa !47
  %58 = call i32 @SendAlert_ex(ptr noundef %55, i32 noundef %56, i32 noundef %57)
  store i32 %58, ptr %8, align 4, !tbaa !47
  %59 = load i32, ptr %8, align 4, !tbaa !47
  store i32 %59, ptr %4, align 4
  store i32 1, ptr %9, align 4
  br label %60

60:                                               ; preds = %54, %51, %15
  call void @llvm.lifetime.end.p0(i64 4, ptr %8) #9
  %61 = load i32, ptr %4, align 4
  ret i32 %61
}

; Function Attrs: nounwind uwtable
define i32 @IsEncryptionOn(ptr noundef %0, i32 noundef %1) #0 {
  %3 = alloca ptr, align 8
  %4 = alloca i32, align 4
  store ptr %0, ptr %3, align 8, !tbaa !3
  store i32 %1, ptr %4, align 4, !tbaa !47
  %5 = load ptr, ptr %3, align 8, !tbaa !3
  %6 = getelementptr inbounds nuw %struct.WOLFSSL, ptr %5, i32 0, i32 48
  %7 = getelementptr inbounds nuw %struct.Keys, ptr %6, i32 0, i32 15
  %8 = load i8, ptr %7, align 4, !tbaa !48
  %9 = zext i8 %8 to i32
  %10 = icmp ne i32 %9, 0
  br i1 %10, label %11, label %29

11:                                               ; preds = %2
  %12 = load i32, ptr %4, align 4, !tbaa !47
  %13 = icmp ne i32 %12, 0
  br i1 %13, label %14, label %20

14:                                               ; preds = %11
  %15 = load ptr, ptr %3, align 8, !tbaa !3
  %16 = getelementptr inbounds nuw %struct.WOLFSSL, ptr %15, i32 0, i32 23
  %17 = getelementptr inbounds nuw %struct.Ciphers, ptr %16, i32 0, i32 5
  %18 = load i8, ptr %17, align 1, !tbaa !49
  %19 = zext i8 %18 to i32
  br label %26

20:                                               ; preds = %11
  %21 = load ptr, ptr %3, align 8, !tbaa !3
  %22 = getelementptr inbounds nuw %struct.WOLFSSL, ptr %21, i32 0, i32 24
  %23 = getelementptr inbounds nuw %struct.Ciphers, ptr %22, i32 0, i32 5
  %24 = load i8, ptr %23, align 1, !tbaa !50
  %25 = zext i8 %24 to i32
  br label %26

26:                                               ; preds = %20, %14
  %27 = phi i32 [ %19, %14 ], [ %25, %20 ]
  %28 = icmp ne i32 %27, 0
  br label %29

29:                                               ; preds = %26, %2
  %30 = phi i1 [ false, %2 ], [ %28, %26 ]
  %31 = zext i1 %30 to i32
  ret i32 %31
}

; Function Attrs: nounwind uwtable
define internal i32 @DoHelloRequest(ptr noundef %0, ptr noundef %1, ptr noundef %2, i32 noundef %3, i32 noundef %4) #0 {
  %6 = alloca i32, align 4
  %7 = alloca ptr, align 8
  %8 = alloca ptr, align 8
  %9 = alloca ptr, align 8
  %10 = alloca i32, align 4
  %11 = alloca i32, align 4
  store ptr %0, ptr %7, align 8, !tbaa !3
  store ptr %1, ptr %8, align 8, !tbaa !89
  store ptr %2, ptr %9, align 8, !tbaa !143
  store i32 %3, ptr %10, align 4, !tbaa !47
  store i32 %4, ptr %11, align 4, !tbaa !47
  br label %12

12:                                               ; preds = %5
  br label %13

13:                                               ; preds = %12
  br label %14

14:                                               ; preds = %13
  br label %15

15:                                               ; preds = %14
  %16 = load i32, ptr %10, align 4, !tbaa !47
  %17 = icmp ne i32 %16, 0
  br i1 %17, label %18, label %19

18:                                               ; preds = %15
  store i32 -328, ptr %6, align 4
  br label %62

19:                                               ; preds = %15
  %20 = load ptr, ptr %7, align 8, !tbaa !3
  %21 = call i32 @IsEncryptionOn(ptr noundef %20, i32 noundef 0)
  %22 = icmp ne i32 %21, 0
  br i1 %22, label %23, label %46

23:                                               ; preds = %19
  %24 = load i32, ptr %10, align 4, !tbaa !47
  %25 = load i32, ptr %11, align 4, !tbaa !47
  %26 = icmp ne i32 %24, %25
  br i1 %26, label %27, label %38

27:                                               ; preds = %23
  %28 = load ptr, ptr %9, align 8, !tbaa !143
  %29 = load i32, ptr %28, align 4, !tbaa !47
  %30 = load ptr, ptr %7, align 8, !tbaa !3
  %31 = getelementptr inbounds nuw %struct.WOLFSSL, ptr %30, i32 0, i32 48
  %32 = getelementptr inbounds nuw %struct.Keys, ptr %31, i32 0, i32 14
  %33 = load i32, ptr %32, align 4, !tbaa !348
  %34 = add i32 %29, %33
  %35 = load i32, ptr %11, align 4, !tbaa !47
  %36 = icmp ugt i32 %34, %35
  br i1 %36, label %37, label %38

37:                                               ; preds = %27
  store i32 -132, ptr %6, align 4
  br label %62

38:                                               ; preds = %27, %23
  %39 = load ptr, ptr %7, align 8, !tbaa !3
  %40 = getelementptr inbounds nuw %struct.WOLFSSL, ptr %39, i32 0, i32 48
  %41 = getelementptr inbounds nuw %struct.Keys, ptr %40, i32 0, i32 14
  %42 = load i32, ptr %41, align 4, !tbaa !348
  %43 = load ptr, ptr %9, align 8, !tbaa !143
  %44 = load i32, ptr %43, align 4, !tbaa !47
  %45 = add i32 %44, %42
  store i32 %45, ptr %43, align 4, !tbaa !47
  br label %46

46:                                               ; preds = %38, %19
  %47 = load ptr, ptr %7, align 8, !tbaa !3
  %48 = getelementptr inbounds nuw %struct.WOLFSSL, ptr %47, i32 0, i32 49
  %49 = getelementptr inbounds nuw %struct.Options, ptr %48, i32 0, i32 1
  %50 = load i64, ptr %49, align 8
  %51 = lshr i64 %50, 4
  %52 = and i64 %51, 3
  %53 = trunc i64 %52 to i16
  %54 = zext i16 %53 to i32
  %55 = icmp eq i32 %54, 0
  br i1 %55, label %56, label %59

56:                                               ; preds = %46
  %57 = load ptr, ptr %7, align 8, !tbaa !3
  %58 = call i32 @SendAlert(ptr noundef %57, i32 noundef 2, i32 noundef 10)
  store i32 -313, ptr %6, align 4
  br label %62

59:                                               ; preds = %46
  %60 = load ptr, ptr %7, align 8, !tbaa !3
  %61 = call i32 @SendAlert(ptr noundef %60, i32 noundef 1, i32 noundef 100)
  store i32 %61, ptr %6, align 4
  br label %62

62:                                               ; preds = %59, %56, %37, %18
  %63 = load i32, ptr %6, align 4
  ret i32 %63
}