; Function Attrs: nounwind uwtable
define internal fastcc range(i32 -387, 1) i32 @DoHelloRequest(ptr noundef %0, ptr noundef captures(none) %1, i32 noundef %2, i32 noundef %3) unnamed_addr #5 {
  %.not = icmp eq i32 %2, 0
  br i1 %.not, label %5, label %SendAlert.exit

5:                                                ; preds = %4
  %6 = getelementptr inbounds nuw i8, ptr %0, i64 1012
  %7 = load i8, ptr %6, align 4, !tbaa !44
  %.not.i = icmp eq i8 %7, 0
  br i1 %.not.i, label %IsEncryptionOn.exit.thread, label %IsEncryptionOn.exit

IsEncryptionOn.exit:                              ; preds = %5
  %.in.in.i = getelementptr inbounds nuw i8, ptr %0, i64 337
  %.in.i = load i8, ptr %.in.in.i, align 1, !tbaa !45
  %.not2 = icmp eq i8 %.in.i, 0
  br i1 %.not2, label %IsEncryptionOn.exit.thread, label %8

8:                                                ; preds = %IsEncryptionOn.exit
  %.not15 = icmp eq i32 %3, 0
  br i1 %.not15, label %._crit_edge, label %9

._crit_edge:                                      ; preds = %8
  %.phi.trans.insert = getelementptr inbounds nuw i8, ptr %0, i64 1008
  %.pre = load i32, ptr %.phi.trans.insert, align 4, !tbaa !232
  %.pre3 = load i32, ptr %1, align 4, !tbaa !49
  %.pre4 = add i32 %.pre3, %.pre
  br label %15

9:                                                ; preds = %8
  %10 = load i32, ptr %1, align 4, !tbaa !49
  %11 = getelementptr inbounds nuw i8, ptr %0, i64 1008
  %12 = load i32, ptr %11, align 4, !tbaa !232
  %13 = add i32 %12, %10
  %14 = icmp ugt i32 %13, %3
  br i1 %14, label %SendAlert.exit, label %15

15:                                               ; preds = %._crit_edge, %9
  %.pre-phi = phi i32 [ %.pre4, %._crit_edge ], [ %13, %9 ]
  store i32 %.pre-phi, ptr %1, align 4, !tbaa !49
  br label %IsEncryptionOn.exit.thread

IsEncryptionOn.exit.thread:                       ; preds = %5, %15, %IsEncryptionOn.exit
  %16 = getelementptr inbounds nuw i8, ptr %0, i64 1024
  %17 = load i64, ptr %16, align 8
  %18 = and i64 %17, 48
  %19 = icmp eq i64 %18, 0
  %20 = getelementptr inbounds nuw i8, ptr %0, i64 656
  %21 = getelementptr inbounds nuw i8, ptr %0, i64 660
  %22 = load i32, ptr %21, align 4, !tbaa !235
  %.not.i16 = icmp eq i32 %22, 0
  br i1 %19, label %23, label %31

23:                                               ; preds = %IsEncryptionOn.exit.thread
  br i1 %.not.i16, label %29, label %RetrySendAlert.exit.i

RetrySendAlert.exit.i:                            ; preds = %23
  %24 = load i32, ptr %20, align 16, !tbaa !236
  store i32 0, ptr %20, align 16, !tbaa !236
  store i32 0, ptr %21, align 4, !tbaa !235
  %25 = tail call fastcc i32 @SendAlert_ex(ptr noundef nonnull %0, i32 noundef %22, i32 noundef %24)
  %.not20.i = icmp eq i32 %25, 0
  br i1 %.not20.i, label %29, label %26

26:                                               ; preds = %RetrySendAlert.exit.i
  %27 = load i32, ptr %21, align 4, !tbaa !235
  %cond = icmp eq i32 %27, 2
  br i1 %cond, label %SendAlert.exit, label %28

28:                                               ; preds = %26
  store i32 10, ptr %20, align 16, !tbaa !236
  store i32 2, ptr %21, align 4, !tbaa !235
  br label %SendAlert.exit

29:                                               ; preds = %RetrySendAlert.exit.i, %23
  %30 = tail call fastcc i32 @SendAlert_ex(ptr noundef %0, i32 noundef 2, i32 noundef 10)
  br label %SendAlert.exit

31:                                               ; preds = %IsEncryptionOn.exit.thread
  br i1 %.not.i16, label %38, label %RetrySendAlert.exit.i18

RetrySendAlert.exit.i18:                          ; preds = %31
  %32 = load i32, ptr %20, align 16, !tbaa !236
  store i32 0, ptr %20, align 16, !tbaa !236
  store i32 0, ptr %21, align 4, !tbaa !235
  %33 = tail call fastcc i32 @SendAlert_ex(ptr noundef nonnull %0, i32 noundef %22, i32 noundef %32)
  %.not20.i19 = icmp eq i32 %33, 0
  br i1 %.not20.i19, label %38, label %34

34:                                               ; preds = %RetrySendAlert.exit.i18
  %35 = load i32, ptr %21, align 4, !tbaa !235
  %36 = icmp eq i32 %35, 0
  br i1 %36, label %37, label %SendAlert.exit

37:                                               ; preds = %34
  store i32 100, ptr %20, align 16, !tbaa !236
  store i32 1, ptr %21, align 4, !tbaa !235
  br label %SendAlert.exit

38:                                               ; preds = %RetrySendAlert.exit.i18, %31
  %39 = tail call fastcc i32 @SendAlert_ex(ptr noundef %0, i32 noundef 1, i32 noundef 100)
  br label %SendAlert.exit

SendAlert.exit:                                   ; preds = %26, %38, %37, %34, %29, %28, %9, %4
  %.0 = phi i32 [ -328, %4 ], [ -132, %9 ], [ -313, %28 ], [ -313, %29 ], [ %39, %38 ], [ %33, %37 ], [ %33, %34 ], [ -313, %26 ]
  ret i32 %.0
}